(dp1
VToronto
p2
c__builtin__
set
p3
((lp4
Vsohan.desarkar@uber.com
p5
aVsuraj.gupta@uber.com
p6
atRp7
sVHyderabad
p8
g3
((lp9
Vsuraj.gupta@uber.com
p10
aVanomeco0@gmail.com
p11
atRp12
sVLondon
p13
g3
((lp14
V
aVsuraj.gupta@uber.com
p15
atRp16
s.