(dp1
Vinsurance_p2p_expense
p2
(lp3
I0
aI0
aI0
aI0
aI0
aI0
aI0
aI0
aI0
aI0
aI0
aI0
aI0
aI0
aI0
aI0
aI0
aI0
aI0
aI0
aI0
aI0
aI0
aI0
aI0
aI0
asVcontingent_worker_misc
p4
(lp5
I0
aI0
aI0
aI0
aI0
aI0
aI0
aI0
aI0
aI0
aI0
aI0
aI0
aI0
aI0
aI0
aI0
aI0
aI0
aI0
aI0
aI0
aI0
aI0
aI0
aI0
asVrider_acquisition
p6
(lp7
I0
aI0
aI0
aI0
aI0
aI0
aI0
aI0
aI0
aI0
aI0
aI0
aI0
aI0
aI0
aI0
aI0
aI0
aI0
aI0
aI0
aI0
aI0
aI0
aI0
aI0
asVnet_inflows
p8
(lp9
F-75477.422436058259
aF16474.992812440581
aF-74955.562629871405
aF-257485.45067023707
aF-55193.261027391163
aF-84658.021111270224
aF-139140.1725938677
aF-153502.52520116186
aF4122.8672909809429
aF-267606.24138646346
aF-155350.60885654646
aF34001.367238273349
aF32051.504865582167
aF39574.80200165297
aI0
aF-175878.52227674448
aF-89429.307801065879
aF-67897.08209969115
aF-124855.7081313363
aF18892.911000821554
aF-243330.68873833469
aF-138994.58766787525
aF-95157.806406555057
aF21444.608821428999
aF-229710.98773617079
aF-243917.04796828993
asVuflux_sales_tax
p10
(lp11
I0
aI0
aI0
aI0
aI0
aI0
aI0
aI0
aI0
aI0
aI0
aI0
aI0
aI0
aI0
aI0
aI0
aI0
aI0
aI0
aI0
aI0
aI0
aI0
aI0
aI0
asVcontingent_worker_time
p12
(lp13
I0
aI0
aI0
aI0
aI0
aI0
aI0
aI0
aI0
aI0
aI0
aI0
aI0
aI0
aI0
aI0
aI0
aI0
aI0
aI0
aI0
aI0
aI0
aI0
aI0
aI0
asVinsurance_non_p2p_expense
p14
(lp15
I0
aI0
aI0
aI0
aI0
aI0
aI0
aI0
aI0
aI0
aI0
aI0
aI0
aI0
aI0
aI0
aI0
aI0
aI0
aI0
aI0
aI0
aI0
aI0
aI0
aI0
asVtotal_part_incentives_and_misc
p16
(lp17
F-102908.27937768119
aF-3591.3004085195507
aF-94199.849624046707
aF-291032.58217772091
aF-95567.622755588134
aF-135858.16330621426
aF-189606.46103514731
aF-202116.18921041579
aF-35847.122985235983
aF-312680.86899044138
aF-200749.3662424951
aF-22624.603866068333
aF-19800.497677175063
aF-15139.717474322739
aI0
aF-233571.716152707
aF-145981.88539588178
aF-122180.37259088938
aF-173688.23530477411
aF-36424.143733055971
aF-297846.83039736864
aF-198535.23702664097
aF-141356.83668092565
aF-26913.433052865352
aF-276300.88889731822
aF-300601.14200914942
asVpo_corporate_communications
p18
(lp19
I0
aI0
aI0
aI0
aI0
aI0
aI0
aI0
aI0
aI0
aI0
aI0
aI0
aI0
aI0
aI0
aI0
aI0
aI0
aI0
aI0
aI0
aI0
aI0
aI0
aI0
asVbooking_fee
p20
(lp21
I0
aI0
aI0
aI0
aI0
aI0
aI0
aI0
aI0
aI0
aI0
aI0
aI0
aI0
aI0
aI0
aI0
aI0
aI0
aI0
aI0
aI0
aI0
aI0
aI0
aI0
asVpo_professional_services
p22
(lp23
I0
aI0
aI0
aI0
aI0
aI0
aI0
aI0
aI0
aI0
aI0
aI0
aI0
aI0
aI0
aI0
aI0
aI0
aI0
aI0
aI0
aI0
aI0
aI0
aI0
aI0
asVemployee_promos_credits
p24
(lp25
F-689.40534994503491
aF-647.05635764016131
aF-750.13719311102966
aF-685.88098204470498
aF-629.06544521802857
aF-502.96782704287284
aF-403.00710883107342
aF-619.27152803224624
aF-589.213631366801
aF-578.05305972883821
aF-637.30406742396428
aF-525.2517405643091
aF-413.84316599486999
aF-442.99860754855251
aI0
aF-684.29021619640935
aF-739.57772077684172
aF-731.90736533528775
aF-654.67893001099344
aF-458.29827775742012
aF-437.65657750091611
aF-705.71681934774665
aF-656.02110663246629
aF-791.32444118724811
aF-513.86749725174036
aF-755.22389153536164
asVpo_payroll_processing_services
p26
(lp27
I0
aI0
aI0
aI0
aI0
aI0
aI0
aI0
aI0
aI0
aI0
aI0
aI0
aI0
aI0
aI0
aI0
aI0
aI0
aI0
aI0
aI0
aI0
aI0
aI0
aI0
asVuflux_gross_fares
p28
(lp29
F129127.41341150604
aF98535.296299010704
aF97126.141590326108
aF172044.49028948339
aF203252.68801758869
aF255151.18109197481
aF251968.37288384096
aF250482.09366068189
aF244371.81883473881
aF280031.6773909867
aF311251.80432392861
aF301437.70186881587
aF262748.55961890804
aF271034.21355807944
aI0
aF283139.66346647072
aF279921.21377794043
aF269521.86749725207
aF283315.36929278151
aF312461.02968120034
aF307100.07006229303
aF297893.83114693966
aF267766.00879443064
aF314144.78358372964
aF278177.5887138145
aF309474.87489923032
asVfees
p30
(lp31
F3901.2092341517041
aF3036.1304507145478
aF2848.2227922315869
aF4221.6196408941005
aF4592.7445950897763
aF4566.6544521802862
aF6141.4437522902153
aF6477.6841333821922
aF5656.577500916087
aF5360.498497618175
aF6009.5274459508983
aF6289.7767680469033
aF6051.6429461341158
aF6381.8248442652985
aI0
aF6592.8911689263477
aF6486.4785635764019
aF6021.8395016489567
aF6216.782850861121
aF6604.323928178821
aF6772.004397215097
aF7101.7955294979856
aF6040.7475265665071
aF6652.6932942469766
aF6027.7024551117629
aF8085.0128252107006
asVuflux_rider_incentives
p32
(lp33
F-2672.8370831806528
aF-2358.5017222425799
aF-2554.8098204470507
aF-5104.98585562477
aF-5921.8787834371606
aF-7262.5512641993409
aF-8205.5075119091234
aF-8054.59567607182
aF-7670.581311835841
aF-8725.3984609747131
aF-14666.941736900084
aF-13531.201319164506
aF-10171.97156467571
aF-9498.6931476731315
aI0
aF-8022.8765115426868
aF-7706.0334188347324
aF-7856.6299743495729
aF-8259.9501648955629
aF-8972.1125687064741
aF-8951.0631000366448
aF-7967.8966654452115
aF-14487.870575302288
aF-19976.784756321009
aF-15478.379186515156
aF-7761.4232319530911
asVuflux_cash_trip_credit
p34
(lp35
F64215.891616949884
aF49129.667705732987
aF48460.884274838827
aF92778.600273090386
aF106508.74418209045
aF142475.34888938829
aF152074.21682366874
aF142976.57629318489
aF141049.01566910456
aF165664.8871594377
aF185483.28450819038
aF175594.72315848726
aF159728.21897222253
aF169572.11362889767
aI0
aF169644.68276837753
aF159182.04449478548
aF157884.45626286461
aF165560.25860007494
aF196234.77839877032
aF203932.86769957806
aF185927.12861863105
aF159346.61170028514
aF181471.81151180752
aF172671.88711399122
aF186362.2041595336
asVtolls
p36
(lp37
I0
aI0
aI0
aI0
aI0
aI0
aI0
aI0
aI0
aI0
aI0
aI0
aI0
aI0
aI0
aI0
aI0
aI0
aI0
aI0
aI0
aI0
aI0
aI0
aI0
aI0
asVinsurance
p38
(lp39
I0
aI0
aI0
aI0
aI0
aI0
aI0
aI0
aI0
aI0
aI0
aI0
aI0
aI0
aI0
aI0
aI0
aI0
aI0
aI0
aI0
aI0
aI0
aI0
aI0
aI0
asVmisc_partner_payments
p40
(lp41
I0
aF-302.59933812751927
aI0
aF-10.560058504288431
aF-3.664345914254306
aF-3.2838401361104115
aF-4267.8613961157935
aF3333.3828828167943
aF-10.554195640287194
aF-4.8747524598353333
aF-47.196775375595458
aI0
aF-2.4624404543788936
aF-0.24917552216929278
aI0
aF-148.1094837852693
aF-115.1105897091998
aF-13.550751190912424
aF-7.1277392238171036
aF-1.8962256521390619
aF-1.1022352062769101
aI0
aF-302.13264932209597
aF-2.3451813851227556
aF-5282.6117625503848
aF-13.337778976960436
asVprofessional_services
p42
(lp43
I0
aI0
aI0
aI0
aI0
aI0
aI0
aI0
aI0
aI0
aI0
aI0
aI0
aI0
aI0
aI0
aI0
aI0
aI0
aI0
aI0
aI0
aI0
aI0
aI0
aI0
asVdriver_payments_incl_all_except_hex
p44
(lp45
F-103614.3339707992
aF-79793.688164162711
aF-78925.40476104636
aF-138299.87354931358
aF-162178.25754626238
aF-201758.10991205458
aF-199841.02779177355
aF-200910.78963677061
aF-202977.03837896889
aF-232170.20288338111
aF-257832.93671445473
aF-238095.55795392088
aF-207190.07162360405
aF-213645.82438624441
aI0
aF-224700.77446408832
aF-222888.65904864308
aF-214135.69389868848
aF-233094.3537353203
aF-255234.48458455253
aF-250842.52627793842
aF-238192.79747157454
aF-213775.87657795672
aF-253253.97468854848
aF-222650.87831851546
aF-253869.59434316377
asVgross_bookings
p46
(lp47
F133330.69739831437
aF102715.78820080623
aF100985.92685965553
aF176137.23561744238
aF206991.06251374108
aF259203.92803224601
aF254636.9596189087
aF258314.60608281451
aF261259.10751190988
aF298614.32876511652
aF329969.99868083594
aF298754.53396848601
aF259222.62543056064
aF269317.04888237407
aI0
aF286370.35588127468
aF283666.82022718922
aF270432.826236717
aF297725.23459142563
aF331547.96277024387
aF321960.21399780054
aF302980.91975082405
aF271449.7357273731
aF324380.61971418036
aF281887.71388787095
aF325347.90047636477
asVuflux_tips_partner
p48
(lp49
I0
aI0
aI0
aI0
aI0
aI0
aI0
aI0
aI0
aI0
aI0
aI0
aI0
aI0
aI0
aI0
aI0
aI0
aI0
aI0
aI0
aI0
aI0
aI0
aI0
aI0
asVno_of_trips
p50
(lp51
I22309
aI18595
aI19269
aI55673
aI73657
aI86009
aI96215
aI102377
aI109507
aI125175
aI136611
aI121825
aI96671
aI92437
aI0
aI110545
aI109608
aI105855
aI114603
aI123188
aI118664
aI115149
aI107969
aI124270
aI108901
aI122364
asVnew_partner_incentives
p52
(lp53
F-439.72150971051667
aF-1418.1018688164163
aF-439.72150971051667
aF-2550.384756320997
aF-2880.1758886038842
aF-5804.3385855624774
aF-8156.8340051300847
aF-5839.3720227189451
aF-20008.611212898497
aF-7358.006595822646
aF-8186.1487724441195
aF-6603.1513374862589
aF-5467.2187614510813
aF-2990.1062660315133
aI0
aF-18387.792231586664
aF18526.932942469772
aF-2139.9780139245149
aF-4111.3961157933318
aF-5100.7841700256504
aF-6947.5998534261635
aF-5276.6581165262005
aF-19430.901429094909
aF-4661.0480029314767
aF-4309.2707951630637
aF-1978.7467936973251
asVnet_inflows_v2
p54
(lp55
F-75477.422436058259
aF16474.992812440581
aF-74955.562629871405
aF-257485.45067023707
aF-55193.261027391163
aF-84658.021111270224
aF-139140.1725938677
aF-153502.52520116186
aF4122.8672909809429
aF-267606.24138646346
aF-155350.60885654646
aF34001.367238273349
aF32051.504865582167
aF39574.80200165297
aI0
aF-175878.52227674448
aF-89429.307801065879
aF-67897.08209969115
aF-124855.7081313363
aF18892.911000821554
aF-243330.68873833469
aF-138994.58766787525
aF-95157.806406555057
aF21444.608821428999
aF-229710.98773617079
aF-243917.04796828993
asVpo_corporate_mobile_expense_services
p56
(lp57
I0
aI0
aI0
aI0
aI0
aI0
aI0
aI0
aI0
aI0
aI0
aI0
aI0
aI0
aI0
aI0
aI0
aI0
aI0
aI0
aI0
aI0
aI0
aI0
aI0
aI0
asVdxgy_incentives_reclass
p58
(lp59
I0
aI0
aI0
aI0
aI0
aI0
aI0
aI0
aI0
aI0
aI0
aI0
aI0
aI0
aI0
aI0
aI0
aI0
aI0
aI0
aI0
aI0
aI0
aI0
aI0
aI0
asVnet_inflows_v4
p60
(lp61
F-75477.422436058259
aF16474.992812440581
aF-74955.562629871405
aF-257485.45067023707
aF-55193.261027391163
aF-84658.021111270224
aF-139140.1725938677
aF-153502.52520116186
aF4122.8672909809429
aF-267606.24138646346
aF-155350.60885654646
aF34001.367238273349
aF32051.504865582167
aF39574.80200165297
aI0
aF-175878.52227674448
aF-89429.307801065879
aF-67897.08209969115
aF-124855.7081313363
aF18892.911000821554
aF-243330.68873833469
aF-138994.58766787525
aF-95157.806406555057
aF21444.608821428999
aF-229710.98773617079
aF-243917.04796828993
asVpo_partner_acquisition
p62
(lp63
I0
aI0
aI0
aI0
aI0
aI0
aI0
aI0
aI0
aI0
aI0
aI0
aI0
aI0
aI0
aI0
aI0
aI0
aI0
aI0
aI0
aI0
aI0
aI0
aI0
aI0
asVindirect_marketing
p64
(lp65
I0
aI0
aI0
aI0
aI0
aI0
aI0
aI0
aI0
aI0
aI0
aI0
aI0
aI0
aI0
aI0
aI0
aI0
aI0
aI0
aI0
aI0
aI0
aI0
aI0
aI0
asVpo_security_services
p66
(lp67
I0
aI0
aI0
aI0
aI0
aI0
aI0
aI0
aI0
aI0
aI0
aI0
aI0
aI0
aI0
aI0
aI0
aI0
aI0
aI0
aI0
aI0
aI0
aI0
aI0
aI0
asVtotal_partner_payment_fees
p68
(lp69
F-103614.3339707992
aF-79793.688164162711
aF-78925.40476104636
aF-138299.87354931358
aF-162178.25754626238
aF-201758.10991205458
aF-199841.02779177355
aF-200910.78963677061
aF-202977.03837896889
aF-232170.20288338111
aF-257832.93671445473
aF-238095.55795392088
aF-207190.07162360405
aF-213645.82438624441
aI0
aF-224700.77446408832
aF-222888.65904864308
aF-214135.69389868848
aF-233094.3537353203
aF-255234.48458455253
aF-250842.52627793842
aF-238192.79747157454
aF-213775.87657795672
aF-253253.97468854848
aF-222650.87831851546
aF-253869.59434316377
asVfares
p70
(lp71
F129429.48816416269
aF99679.657750091676
aF98137.70406742394
aF171915.61597654826
aF202398.31791865133
aF254637.2735800657
aF248495.51586661849
aF251836.92194943229
aF255602.53001099383
aF293253.83026749833
aF323960.47123488504
aF292464.75720043917
aF253170.98248442655
aF262935.22403810878
aI0
aF279777.4647123483
aF277180.34166361287
aF264410.98673506803
aF291508.45174056455
aF324943.63884206512
aF315188.20960058545
aF295879.12422132603
aF265408.98820080666
aF317727.92641993338
aF275860.01143275917
aF317262.88765115407
asVnew_partner_incentives_reclass
p72
(lp73
I0
aI0
aI0
aI0
aI0
aI0
aI0
aI0
aI0
aI0
aI0
aI0
aI0
aI0
aI0
aI0
aI0
aI0
aI0
aI0
aI0
aI0
aI0
aI0
aI0
aI0
asVnet_bookings
p74
(lp75
F134189.31520703551
aF102500.328325394
aF100674.96812019052
aF177050.10509344091
aF208533.55309637217
aF260592.87064858893
aF258957.05166727811
aF257785.48127519275
aF251142.71132282965
aF286281.10267497343
aF318486.25240014703
aF308569.93477464217
aF269571.94312935136
aF278027.40491022309
aI0
aF290435.79186515161
aF287319.448296079
aF276185.8987174792
aF290356.4636130454
aF320044.7138145825
aF314745.86016855907
aF305885.47379992611
aF274697.88699157245
aF321606.58541590261
aF285033.98812751914
aF318509.75522169273
asVtax_services
p76
(lp77
I0
aI0
aI0
aI0
aI0
aI0
aI0
aI0
aI0
aI0
aI0
aI0
aI0
aI0
aI0
aI0
aI0
aI0
aI0
aI0
aI0
aI0
aI0
aI0
aI0
aI0
asVtotal_fares
p78
(lp79
F135192.09849761816
aF103835.60293147681
aF102314.82257237082
aF180623.87702455118
aF212515.43275925232
aF266337.14137046505
aF261134.86625137483
aF262851.2901429098
aF265801.50106266112
aF305339.16423598491
aF338984.11168926395
aF311520.48413338169
aF270135.42601685598
aF278473.00564309221
aI0
aF294398.58820080565
aF291585.36093807232
aF279719.59120557009
aF304900.54364236008
aF335444.89879076427
aF327789.38966654369
aF310895.53037742712
aF279830.08120190591
aF332326.6463906187
aF290783.86837669474
aF331019.62345181359
asVpo_lobby_services
p80
(lp81
I0
aI0
aI0
aI0
aI0
aI0
aI0
aI0
aI0
aI0
aI0
aI0
aI0
aI0
aI0
aI0
aI0
aI0
aI0
aI0
aI0
aI0
aI0
aI0
aI0
aI0
asVpartner_acquisition
p82
(lp83
I0
aI0
aI0
aI0
aI0
aI0
aI0
aI0
aI0
aI0
aI0
aI0
aI0
aI0
aI0
aI0
aI0
aI0
aI0
aI0
aI0
aI0
aI0
aI0
aI0
aI0
asVinsurance_ibnr_reserve
p84
(lp85
I0
aI0
aI0
aI0
aI0
aI0
aI0
aI0
aI0
aI0
aI0
aI0
aI0
aI0
aI0
aI0
aI0
aI0
aI0
aI0
aI0
aI0
aI0
aI0
aI0
aI0
asVtoll_tax_fees
p86
(lp87
F3901.2092341517041
aF3036.1304507145478
aF2848.2227922315869
aF4221.6196408941005
aF4592.7445950897763
aF4566.6544521802862
aF6141.4437522902153
aF6477.6841333821922
aF5656.577500916087
aF5360.498497618175
aF6009.5274459508983
aF6289.7767680469033
aF6051.6429461341158
aF6381.8248442652985
aI0
aF6592.8911689263477
aF6486.4785635764019
aF6021.8395016489567
aF6216.782850861121
aF6604.323928178821
aF6772.004397215097
aF7101.7955294979856
aF6040.7475265665071
aF6652.6932942469766
aF6027.7024551117629
aF8085.0128252107006
asVuflux_source_rate
p88
(lp89
F-102468.55786797067
aF-1870.5992015756151
aF-93760.128114336185
aF-288471.63736289565
aF-92683.782521069996
aF-130050.54088051568
aF-177181.76563390144
aF-199610.20007051365
aF-15827.957576697194
aF-305317.98764215893
aF-192516.02069467539
aF-16021.452528582076
aF-14330.816475269603
aF-12149.362032769057
aI0
aF-215035.81443733507
aF-164393.70774864237
aF-120026.84382577396
aF-169569.71144975696
aF-31321.463337378183
aF-290898.1283087362
aF-193258.57891011477
aF-121623.80260250866
aF-22250.039868548745
aF-266709.00633960473
aF-298609.05743647512
asVg1_g1_rider_promo
p90
(lp91
I0
aI0
aI0
aI0
aI0
aI0
aI0
aI0
aI0
aI0
aI0
aI0
aI0
aI0
aI0
aI0
aI0
aI0
aI0
aI0
aI0
aI0
aI0
aI0
aI0
aI0
asVuflux_tips_revenue
p92
(lp93
I0
aI0
aI0
aI0
aI0
aI0
aI0
aI0
aI0
aI0
aI0
aI0
aI0
aI0
aI0
aI0
aI0
aI0
aI0
aI0
aI0
aI0
aI0
aI0
aI0
aI0
asVother_new_rider_promo
p94
(lp95
I0
aI0
aI0
aI0
aI0
aI0
aI0
aI0
aI0
aI0
aI0
aI0
aI0
aI0
aI0
aI0
aI0
aI0
aI0
aI0
aI0
aI0
aI0
aI0
aI0
aI0
asVaccount_services
p96
(lp97
I0
aI0
aI0
aI0
aI0
aI0
aI0
aI0
aI0
aI0
aI0
aI0
aI0
aI0
aI0
aI0
aI0
aI0
aI0
aI0
aI0
aI0
aI0
aI0
aI0
aI0
asVuflux_cost
p98
(lp99
F-91503.833787581912
aF-69174.524551117633
aF-67680.461558408031
aF-118209.01242802369
aF-140624.39624175522
aF-177674.08253939173
aF-180622.64651658115
aF-174632.68776795419
aF-176848.38685826532
aF-202847.78258290474
aF-226206.15401016746
aF-212261.64626465741
aF-190885.20949461905
aF-197119.93486627372
aI0
aF-197009.21319622576
aF-195375.33981082815
aF-187900.11009509856
aF-203974.49664481095
aF-229225.48678316007
aF-229497.64170483474
aF-208008.62495419572
aF-184866.6378458204
aF-215640.36897216886
aF-197340.5256252212
aF-218086.42285177499
asVpo_contra_rev_fees
p100
(lp101
I0
aI0
aI0
aI0
aI0
aI0
aI0
aI0
aI0
aI0
aI0
aI0
aI0
aI0
aI0
aI0
aI0
aI0
aI0
aI0
aI0
aI0
aI0
aI0
aI0
aI0
asVexisting_part_incentives_incl_hex_net_reclass
p102
(lp103
F-102468.55786797067
aF-1870.5992015756151
aF-93760.128114336185
aF-288471.63736289565
aF-92683.782521069996
aF-130050.54088051568
aF-177181.76563390144
aF-199610.20007051365
aF-15827.957576697194
aF-305317.98764215893
aF-192516.02069467539
aF-16021.452528582076
aF-14330.816475269603
aF-12149.362032769057
aI0
aF-215035.81443733507
aF-164393.70774864237
aF-120026.84382577396
aF-169569.71144975696
aF-31321.463337378183
aF-290898.1283087362
aF-193258.57891011477
aF-121623.80260250866
aF-22250.039868548745
aF-266709.00633960473
aF-298609.05743647512
asVtips
p104
(lp105
I0
aI0
aI0
aI0
aI0
aI0
aI0
aI0
aI0
aI0
aI0
aI0
aI0
aI0
aI0
aI0
aI0
aI0
aI0
aI0
aI0
aI0
aI0
aI0
aI0
aI0
asVrestaurant_payments_incl_all
p106
(lp107
I0
aI0
aI0
aI0
aI0
aI0
aI0
aI0
aI0
aI0
aI0
aI0
aI0
aI0
aI0
aI0
aI0
aI0
aI0
aI0
aI0
aI0
aI0
aI0
aI0
aI0
asVexisting_part_incentives_incl_hex
p108
(lp109
F-102468.55786797067
aF-1870.5992015756151
aF-93760.128114336185
aF-288471.63736289565
aF-92683.782521069996
aF-130050.54088051568
aF-177181.76563390144
aF-199610.20007051365
aF-15827.957576697194
aF-305317.98764215893
aF-192516.02069467539
aF-16021.452528582076
aF-14330.816475269603
aF-12149.362032769057
aI0
aF-215035.81443733507
aF-164393.70774864237
aF-120026.84382577396
aF-169569.71144975696
aF-31321.463337378183
aF-290898.1283087362
aF-193258.57891011477
aF-121623.80260250866
aF-22250.039868548745
aF-266709.00633960473
aF-298609.05743647512
asVuflux_revenue
p110
(lp111
F135190.77933308901
aF103834.87006229397
aF102313.28354708682
aF180622.11813851236
aF212513.16086478546
aF266334.79618907993
aF261133.10736533598
aF262849.82440454408
aF265799.81546354055
aF305337.47863686434
aF338983.01238548965
aF311518.8718211794
aF270134.25342616346
aF278471.97962623625
aI0
aF294396.02315866569
aF291583.08904360549
aF279717.8323195313
aF304899.29776474927
aF335443.79948698997
aF327788.94994503399
aF310893.84477830655
aF279828.61546354019
aF332325.18065225292
aF290783.28208134847
aF331018.01113961136
asVpo_labor_contract_fte
p112
(lp113
I0
aI0
aI0
aI0
aI0
aI0
aI0
aI0
aI0
aI0
aI0
aI0
aI0
aI0
aI0
aI0
aI0
aI0
aI0
aI0
aI0
aI0
aI0
aI0
aI0
aI0
asVrefunds
p114
(lp115
F-1160.6925613777944
aF-928.90157566874336
aF-700.60373763283258
aF-783.99516306339308
aF-688.12048369366073
aF-875.03510443385846
aF-847.2350311469404
aF-825.70348112861871
aF-1114.3149871747894
aF-888.92678636863297
aF-1224.9206302674972
aF-842.45613777940639
aF-771.74056430927067
aF-611.36650787834401
aI0
aF-703.23722975448879
aF-911.75595456211045
aF-642.19171857823369
aF-824.31146940271174
aF-979.36020520337081
aF-873.78570905093466
aF-889.84712348845721
aF-891.13067057530202
aF-809.10853792598039
aF-828.69695859289106
aF-949.86749725174059
asVnew_partner_incentives_net_reclass
p116
(lp117
F-439.72150971051667
aF-1418.1018688164163
aF-439.72150971051667
aF-2550.384756320997
aF-2880.1758886038842
aF-5804.3385855624774
aF-8156.8340051300847
aF-5839.3720227189451
aF-20008.611212898497
aF-7358.006595822646
aF-8186.1487724441195
aF-6603.1513374862589
aF-5467.2187614510813
aF-2990.1062660315133
aI0
aF-18387.792231586664
aF18526.932942469772
aF-2139.9780139245149
aF-4111.3961157933318
aF-5100.7841700256504
aF-6947.5998534261635
aF-5276.6581165262005
aF-19430.901429094909
aF-4661.0480029314767
aF-4309.2707951630637
aF-1978.7467936973251
asVuflux_cash_trip_debit
p118
(lp119
F-65724.261341150675
aF-49433.260388420662
aF-48234.399267130881
aF-92572.125027482645
aF-106584.01846830387
aF-142556.49879076617
aF-151594.19347746467
aF-142273.24617075844
aF-140547.68486625212
aF-164399.98754122498
aF-183981.4925613784
aF-174265.9378526941
aF-159096.97339684857
aF-168894.75236350377
aI0
aF-169040.44338585666
aF-157723.37295712775
aF-157389.92876511574
aF-164242.81363136752
aF-194632.01392451546
aF-202633.39039941429
aF-185028.05262000908
aF-158654.49996335711
aF-180722.54818615041
aF-172170.99904727066
aF-185684.41363136942
asVuflux_tolls_partner
p120
(lp121
I0
aI0
aI0
aI0
aI0
aI0
aI0
aI0
aI0
aI0
aI0
aI0
aI0
aI0
aI0
aI0
aI0
aI0
aI0
aI0
aI0
aI0
aI0
aI0
aI0
aI0
asVnet_ufp_adjustments
p122
(lp123
F858.6178087211415
aF-215.45987541223667
aF-310.95873946500069
aF912.86947599851544
aF1542.4905826310378
aF1388.9426163429616
aF4320.0920483693826
aF-529.12480762179803
aF-10116.396189080242
aF-12333.226090143031
aF-11483.746280688909
aF9815.400806156098
aF10349.317698790741
aF8710.3560278490258
aI0
aF4065.4359838768964
aF3652.62806888972
aF5753.0724807622373
aF-7368.7709783803148
aF-11503.248955661387
aF-7214.3538292415215
aF2904.5540491021843
aF3248.1512641993149
aF-2774.0342982778002
aF3146.2742396482108
aF-6838.1452546720466
asVmarketing_credits
p124
(lp125
F-761.90487358006601
aF-768.22865518504943
aF-812.37317698790775
aF-1433.5736167094174
aF-1649.9051667277397
aF-1847.0290949065593
aF-1806.6798094540125
aF-1888.0580432392821
aF-1805.484939538293
aF-1866.9052400146575
aF-2080.9651887138148
aF-1914.9338219127885
aF-1639.3071454745332
aF-1467.1331623305241
aI0
aF-1559.1618908024921
aF-1558.4392817882012
aF-1420.1093440820814
aF-1387.5401978746795
aF-1358.7865152070356
aF-1351.2039574935877
aF-1254.7155734701355
aF-1079.4204470502018
aF-1211.8015390252847
aF-805.84756320996689
aF-685.42074019787447
asVpo_rider_acquisition
p126
(lp127
I0
aI0
aI0
aI0
aI0
aI0
aI0
aI0
aI0
aI0
aI0
aI0
aI0
aI0
aI0
aI0
aI0
aI0
aI0
aI0
aI0
aI0
aI0
aI0
aI0
aI0
asVufp_adj_down
p128
(lp129
F-4903.9925247343353
aF-4371.4050567973572
aF-4488.0772444118738
aF-7795.3915720044115
aF-8574.6242579699374
aF-10310.925174056432
aF-8319.2583363869508
aF-11543.493001099298
aF-20315.367240747524
aF-24418.560058629599
aF-26507.38673506783
aF-9240.3261267863672
aF-6615.1258336386936
aF-6827.4255771344806
aI0
aF-10555.687504580415
aF-10752.391205569766
aF-9555.5319897398313
aF-20760.862880175853
aF-22004.508904360573
aF-19815.533895199747
aF-12111.852106998906
aF-11172.941736899948
aF-17372.754268963039
aF-11777.582704287313
aF-20594.8810553316
asVexisting_rider_promo
p130
(lp131
F-1221.526859655552
aF-943.21670941736897
aF-992.29945034811328
aF-2985.5312568706481
aF-3642.9081714913923
aF-4912.5543422499095
aF-5995.8205936240365
aF-5547.2661048002919
aF-5275.8827409307469
aF-6280.4401612312158
aF-11948.672480762307
aF-11091.015756687408
aF-8118.8212532063062
aF-7588.5613777940553
aI0
aF-5779.4244045437854
aF-5408.0164162696901
aF-5704.6132649322053
aF-6217.7310370098885
aF-7155.0277757420172
aF-7162.2025650421401
aF-6007.4642726273296
aF-12752.429021619622
aF-17973.658776108477
aF-14158.664126053449
aF-6320.7786002198536
asVcontingent_worker_expense
p132
(lp133
I0
aI0
aI0
aI0
aI0
aI0
aI0
aI0
aI0
aI0
aI0
aI0
aI0
aI0
aI0
aI0
aI0
aI0
aI0
aI0
aI0
aI0
aI0
aI0
aI0
aI0
asVtotal_rider_promo
p134
(lp135
F-1221.526859655552
aF-943.21670941736897
aF-992.29945034811328
aF-2985.5312568706481
aF-3642.9081714913923
aF-4912.5543422499095
aF-5995.8205936240365
aF-5547.2661048002919
aF-5275.8827409307469
aF-6280.4401612312158
aF-11948.672480762307
aF-11091.015756687408
aF-8118.8212532063062
aF-7588.5613777940553
aI0
aF-5779.4244045437854
aF-5408.0164162696901
aF-5704.6132649322053
aF-6217.7310370098885
aF-7155.0277757420172
aF-7162.2025650421401
aF-6007.4642726273296
aF-12752.429021619622
aF-17973.658776108477
aF-14158.664126053449
aF-6320.7786002198536
asVuflux_bcf
p136
(lp137
I0
aI0
aI0
aI0
aI0
aI0
aI0
aI0
aI0
aI0
aI0
aI0
aI0
aI0
aI0
aI0
aI0
aI0
aI0
aI0
aI0
aI0
aI0
aI0
aI0
aI0
asVcontingent_worker
p138
(lp139
I0
aI0
aI0
aI0
aI0
aI0
aI0
aI0
aI0
aI0
aI0
aI0
aI0
aI0
aI0
aI0
aI0
aI0
aI0
aI0
aI0
aI0
aI0
aI0
aI0
aI0
asVindirect_marketing_others
p140
(lp141
I0
aI0
aI0
aI0
aI0
aI0
aI0
aI0
aI0
aI0
aI0
aI0
aI0
aI0
aI0
aI0
aI0
aI0
aI0
aI0
aI0
aI0
aI0
aI0
aI0
aI0
asVuflux_ubereats_cost
p142
(lp143
I0
aI0
aI0
aI0
aI0
aI0
aI0
aI0
aI0
aI0
aI0
aI0
aI0
aI0
aI0
aI0
aI0
aI0
aI0
aI0
aI0
aI0
aI0
aI0
aI0
aI0
asVpo_others
p144
(lp145
I0
aI0
aI0
aI0
aI0
aI0
aI0
aI0
aI0
aI0
aI0
aI0
aI0
aI0
aI0
aI0
aI0
aI0
aI0
aI0
aI0
aI0
aI0
aI0
aI0
aI0
asVufp_adj_up
p146
(lp147
F5762.6103334554764
aF4155.945181385121
aF4177.1185049468731
aF8708.2610480029271
aF10117.114840600974
aF11699.867790399396
aF12639.350384756333
aF11014.3681934775
aF10198.971051667284
aF12085.333968486566
aF15023.640454378921
aF19055.726932942463
aF16964.443532429435
aF15537.781604983504
aI0
aF14621.123488457313
aF14405.019274459486
aF15308.604470502069
aF13392.091901795538
aF10501.259948699186
aF12601.180065958224
aF15016.406156101091
aF14421.093001099262
aF14598.719970685241
aF14923.856943935523
aF13756.735800659551
as.